(lp1
(F1460373291.8664811
I94
I-4312
I288169984
I146399232
I82
I24321128
tp2
a(F1460373292.8676281
I92
I-4395
I288333824
I146468864
I83
I24321128
tp3
a(F1460373293.868788
I88
I-4478
I288333824
I146477056
I79
I24321128
tp4
a(F1460373294.8690469
I95
I-4556
I288333824
I146477056
I86
I24321132
tp5
a(F1460373295.870177
I93
I-4641
I288333824
I146477056
I85
I24321136
tp6
a(F1460373296.8713
I93
I-4724
I288333824
I146477056
I84
I24321136
tp7
a(F1460373297.872426
I87
I-4807
I288333824
I146477056
I77
I24321136
tp8
a(F1460373298.8735089
I97
I-4883
I288333824
I146477056
I87
I24321144
tp9
a(F1460373299.8746729
I94
I-4969
I288333824
I146477056
I84
I24321144
tp10
a(F1460373300.875824
I74
I-5055
I288333824
I146477056
I66
I24321140
tp11
a(F1460373301.876199
I93
I-5117
I288333824
I146477056
I83
I24321140
tp12
a(F1460373302.877331
I95
I-5200
I288333824
I146477056
I104
I24321136
tp13
a(F1460373303.8784521
I95
I-5285
I288333824
I146477056
I85
I24321140
tp14
a(F1460373304.8790441
I70
I-5371
I288333824
I146477056
I63
I24321140
tp15
a(F1460373305.880197
I95
I-5431
I288333824
I146477056
I86
I24321140
tp16
a(F1460373306.881309
I94
I-5516
I288333824
I146477056
I86
I24321140
tp17
a(F1460373307.8824849
I96
I-5598
I288333824
I146477056
I84
I24321140
tp18
a(F1460373308.8831811
I96
I-5682
I288333824
I146497536
I86
I24321128
tp19
a(F1460373309.8843091
I83
I-5769
I288333824
I146497536
I74
I24321128
tp20
a(F1460373310.8854311
I89
I-5843
I288333824
I146497536
I82
I24321128
tp21
a(F1460373311.8866041
I95
I-5921
I288333824
I146497536
I85
I24321128
tp22
a(F1460373312.887732
I95
I-6004
I288333824
I146497536
I84
I24321132
tp23
a(F1460373313.8881609
I94
I-6088
I288333824
I146497536
I84
I24321132
tp24
a(F1460373314.889292
I90
I-6171
I288333824
I146497536
I80
I24321136
tp25
a(F1460373315.89048
I93
I-6249
I288333824
I146497536
I83
I24321136
tp26
a(F1460373316.8916409
I93
I-6331
I288333824
I146497536
I84
I24321136
tp27
a(F1460373317.8927829
I90
I-6414
I288333824
I146497536
I86
I24321136
tp28
a(F1460373318.8938971
I95
I-6492
I288333824
I146497536
I85
I24321136
tp29
a(F1460373319.895036
I83
I-6577
I288333824
I146497536
I76
I24321136
tp30
a(F1460373320.8962269
I0
I-6660
I288333824
I146497536
I1
I24321136
tp31
a(F1460373321.8974061
I25
I-6657
I288333824
I146497536
I24
I24321132
tp32
a(F1460373322.8985419
I0
I-6682
I288333824
I146497536
I3
I24321132
tp33
a(F1460373323.899693
I14
I-6681
I288333824
I146497536
I15
I24321132
tp34
a(F1460373324.9008479
I0
I-6695
I288333824
I146497536
I1
I24321132
tp35
a(F1460373325.9020219
I72
I-6688
I288333824
I146497536
I67
I24321124
tp36
a(F1460373326.9032049
I77
I-6752
I288333824
I146497536
I70
I24321128
tp37
a(F1460373327.9043181
I95
I-6819
I288333824
I146497536
I92
I24321128
tp38
a(F1460373328.905494
I86
I-6904
I288333824
I146497536
I78
I24321128
tp39
a(F1460373329.9066191
I94
I-6981
I288333824
I146497536
I86
I24321128
tp40
a(F1460373330.907752
I94
I-7065
I288333824
I146497536
I121
I24321128
tp41
a(F1460373331.907819
I92
I-7149
I288333824
I146497536
I84
I24321128
tp42
a(F1460373332.9089961
I96
I-7230
I288333824
I146497536
I89
I24321128
tp43
a(F1460373333.9102061
I96
I-7316
I288333824
I146505728
I87
I24321128
tp44
a(F1460373334.9111941
I74
I-7404
I288333824
I146505728
I68
I24321128
tp45
a(F1460373335.9123361
I97
I-7468
I288333824
I146505728
I88
I24321132
tp46
a(F1460373336.913482
I96
I-7555
I288333824
I146505728
I98
I24321132
tp47
a(F1460373337.9146309
I90
I-7642
I288333824
I146595840
I88
I24321136
tp48
a(F1460373338.9151821
I95
I-7722
I288333824
I146595840
I86
I24321136
tp49
a(F1460373339.9163339
I92
I-7808
I288333824
I146595840
I85
I24321140
tp50
a(F1460373340.917233
I95
I-7891
I288333824
I146595840
I90
I24321140
tp51
a(F1460373341.9184091
I93
I-7976
I288333824
I146595840
I84
I24321140
tp52
a(F1460373342.919548
I90
I-8059
I288333824
I146595840
I84
I24321140
tp53
a(F1460373343.920717
I76
I-8142
I288333824
I146595840
I69
I24321140
tp54
a(F1460373344.9218459
I95
I-8207
I288333824
I146595840
I86
I24321136
tp55
a(F1460373345.9230011
I91
I-8290
I288333824
I146595840
I79
I24321136
tp56
a(F1460373346.9241951
I91
I-8370
I288333824
I146595840
I82
I24321136
tp57
a(F1460373347.9254119
I84
I-8452
I288333824
I146595840
I78
I24321136
tp58
a(F1460373348.926558
I92
I-8526
I288333824
I146595840
I83
I24321160
tp59
a(F1460373349.927197
I92
I-8607
I288333824
I146595840
I82
I24321160
tp60
a(F1460373350.92836
I64
I-8692
I288333824
I146595840
I58
I24321160
tp61
a(F1460373351.929518
I90
I-8747
I288333824
I146595840
I82
I24321160
tp62
a(F1460373352.9306891
I96
I-8826
I288333824
I146595840
I93
I24321160
tp63
a(F1460373353.9318459
I36
I-8918
I288333824
I146595840
I38
I24321160
tp64
a(F1460373354.932997
I67
I-8946
I288333824
I146595840
I62
I24321160
tp65
a(F1460373355.934201
I97
I-9003
I288333824
I146595840
I88
I24321156
tp66
a(F1460373356.9353721
I93
I-9089
I288333824
I146595840
I85
I24321156
tp67
a(F1460373357.936481
I89
I-9171
I288333824
I146595840
I78
I24321160
tp68
a(F1460373358.9372489
I34
I-9255
I288333824
I146595840
I31
I24321164
tp69
a(F1460373359.9384279
I0
I-9289
I288333824
I146595840
I2
I24321156
tp70
a(F1460373360.939573
I7
I-9288
I288333824
I146595840
I8
I24321156
tp71
a(F1460373361.940722
I38
I-9291
I288333824
I146595840
I36
I24321156
tp72
a(F1460373362.941839
I96
I-9319
I288333824
I146595840
I92
I24321160
tp73
a(F1460373363.942965
I89
I-9404
I288333824
I146595840
I79
I24321164
tp74
a(F1460373364.944102
I84
I-9484
I288333824
I146595840
I76
I24321160
tp75
a(F1460373365.9452929
I95
I-9558
I288333824
I146595840
I88
I24321160
tp76
a(F1460373366.946455
I74
I-9645
I288333824
I146595840
I67
I24321160
tp77
a(F1460373367.9475949
I80
I-9711
I288333824
I146595840
I76
I24321164
tp78
a(F1460373368.9487219
I90
I-9780
I288333824
I146595840
I79
I24321168
tp79
a(F1460373369.949887
I93
I-9860
I288333824
I146595840
I85
I24321172
tp80
a(F1460373370.951062
I81
I-9944
I288333824
I146595840
I74
I24321168
tp81
a(F1460373371.9518621
I94
I-10014
I288333824
I146595840
I86
I24321172
tp82
a(F1460373372.953012
I94
I-10097
I288333824
I146595840
I84
I24321172
tp83
a(F1460373373.9542329
I87
I-10181
I288333824
I146595840
I79
I24321172
tp84
a(F1460373374.955354
I95
I-10256
I288333824
I146595840
I83
I24321176
tp85
a(F1460373375.956532
I78
I-10343
I288333824
I146595840
I77
I24321172
tp86
a(F1460373376.95767
I93
I-10410
I288333824
I146595840
I85
I24321172
tp87
a(F1460373377.958833
I80
I-10494
I288333824
I146595840
I74
I24321172
tp88
a(F1460373378.95995
I91
I-10562
I288333824
I146595840
I79
I24321176
tp89
a(F1460373379.9611959
I91
I-10641
I288333824
I146595840
I81
I24321176
tp90
a(F1460373380.9621899
I95
I-10721
I288333824
I146595840
I86
I24321176
tp91
a(F1460373381.96332
I94
I-10805
I288333824
I146591744
I85
I24321184
tp92
a(F1460373382.964469
I94
I-10889
I288333824
I146591744
I86
I24321192
tp93
a(F1460373383.965641
I95
I-10971
I288333824
I146591744
I84
I24321192
tp94
a(F1460373384.9667921
I92
I-11055
I288333824
I146591744
I82
I24321192
tp95
a(F1460373385.9678731
I11
I-11146
I288333824
I146591744
I19
I24321192
tp96
a(F1460373386.969017
I56
I-11150
I288333824
I146591744
I49
I24321192
tp97
a(F1460373387.9702151
I79
I-11196
I288333824
I146591744
I70
I24321192
tp98
a(F1460373388.9713571
I96
I-11264
I288333824
I146591744
I88
I24321192
tp99
a(F1460373389.972173
I69
I-11353
I288333824
I146591744
I63
I24321192
tp100
a(F1460373390.97329
I95
I-11412
I288333824
I146591744
I88
I24321192
tp101
a(F1460373391.974431
I92
I-11496
I288333824
I146591744
I83
I24321192
tp102
a(F1460373392.9755671
I92
I-11576
I288333824
I146591744
I81
I24321192
tp103
a(F1460373393.976696
I96
I-11656
I288333824
I146591744
I84
I24321192
tp104
a(F1460373394.9778061
I89
I-11740
I288333824
I146591744
I80
I24321192
tp105
a(F1460373395.978945
I30
I-11826
I288333824
I146591744
I27
I24321192
tp106
a(F1460373396.980078
I13
I-11854
I288333824
I146591744
I12
I24321192
tp107
a(F1460373397.981226
I3
I-11867
I288333824
I146591744
I5
I24321192
tp108
a(F1460373398.9823749
I89
I-11860
I288333824
I146591744
I81
I24321192
tp109
a(F1460373399.9835479
I93
I-11940
I288333824
I146591744
I85
I24321192
tp110
a(F1460373400.98472
I15
I-12031
I288333824
I146591744
I14
I24321192
tp111
a(F1460373401.985868
I96
I-12034
I288333824
I146591744
I86
I24321192
tp112
a(F1460373402.9869919
I92
I-12118
I288333824
I146591744
I82
I24321196
tp113
a(F1460373403.9881611
I96
I-12199
I288333824
I146591744
I86
I24321204
tp114
a(F1460373404.9893401
I89
I-12284
I288333824
I146591744
I80
I24321204
tp115
a(F1460373405.9904549
I92
I-12363
I288333824
I146591744
I90
I24321204
tp116
a(F1460373406.9916141
I86
I-12444
I288333824
I146591744
I76
I24321204
tp117
a(F1460373407.9927461
I92
I-12519
I288333824
I146591744
I83
I24321200
tp118
a(F1460373408.9939449
I92
I-12599
I288333824
I146591744
I82
I24321200
tp119
a(F1460373409.9951
I73
I-12683
I288333824
I146591744
I67
I24321204
tp120
a(F1460373410.9962499
I93
I-12746
I288333824
I146591744
I87
I24321204
tp121
a(F1460373411.99734
I93
I-12828
I288333824
I146591744
I83
I24321204
tp122
a(F1460373412.9984961
I90
I-12911
I288333824
I146591744
I81
I24321204
tp123
a(F1460373413.9996331
I90
I-12992
I288333824
I146591744
I82
I24321208
tp124
a(F1460373415.0007801
I92
I-13072
I288333824
I146591744
I83
I24321200
tp125
a(F1460373416.0019939
I94
I-13155
I288333824
I146591744
I86
I24321200
tp126
a(F1460373417.0031509
I47
I-13244
I288333824
I146591744
I44
I24321200
tp127
a(F1460373418.004338
I51
I-13286
I288333824
I146591744
I47
I24321200
tp128
a(F1460373419.0054951
I93
I-13326
I288333824
I146591744
I86
I24321200
tp129
a(F1460373420.006655
I77
I-13410
I288333824
I146591744
I69
I24321200
tp130
a(F1460373421.0072279
I66
I-13479
I288333824
I146591744
I64
I24321200
tp131
a(F1460373422.008389
I91
I-13535
I288333824
I146591744
I83
I24321204
tp132
a(F1460373423.0095551
I100
I-13614
I288333824
I146591744
I91
I24321204
tp133
a(F1460373424.0107851
I91
I-13703
I288497664
I146624512
I80
I24321196
tp134
a(F1460373425.0119579
I93
I-13783
I288497664
I146624512
I84
I24321196
tp135
a(F1460373426.0132301
I95
I-13865
I288497664
I146624512
I88
I24321196
tp136
a(F1460373427.014375
I39
I-13957
I288497664
I146624512
I36
I24321196
tp137
a(F1460373428.0155189
I1
I-13995
I288497664
I146624512
I3
I24321196
tp138
a(F1460373429.01666
I0
I-13996
I288497664
I146624512
I1
I24321196
tp139
a(F1460373430.017184
I56
I-13990
I288497664
I146624512
I51
I24321196
tp140
a(F1460373431.018353
I95
I-14035
I288497664
I146624512
I86
I24321200
tp141
a(F1460373432.0194981
I75
I-14121
I288497664
I146624512
I70
I24321200
tp142
a(F1460373433.020601
I90
I-14186
I288497664
I146624512
I81
I24321200
tp143
a(F1460373434.021729
I91
I-14265
I288497664
I146624512
I82
I24321200
tp144
a(F1460373435.0228691
I96
I-14345
I288497664
I146624512
I86
I24321200
tp145
a(F1460373436.023957
I91
I-14430
I288497664
I146624512
I82
I24321200
tp146
a(F1460373437.0251441
I95
I-14511
I288497664
I146624512
I86
I24321204
tp147
a(F1460373438.0263021
I88
I-14596
I288497664
I146624512
I80
I24321204
tp148
a(F1460373439.0274589
I94
I-14674
I288497664
I146624512
I89
I24321204
tp149
a(F1460373440.0286131
I94
I-14756
I288497664
I146624512
I84
I24321208
tp150
a(F1460373441.029742
I90
I-14841
I288497664
I146624512
I82
I24321204
tp151
a(F1460373442.0308771
I93
I-14920
I288497664
I146624512
I84
I24321204
tp152
a(F1460373443.0311821
I81
I-15004
I288497664
I146624512
I73
I24321204
tp153
a(F1460373444.0323491
I93
I-15074
I288497664
I146624512
I84
I24321204
tp154
a(F1460373445.0335391
I90
I-15157
I288497664
I146624512
I81
I24321204
tp155
a(F1460373446.03459
I97
I-15235
I288497664
I146624512
I87
I24321204
tp156
a(F1460373447.035749
I94
I-15321
I288497664
I146624512
I86
I24321200
tp157
a(F1460373448.0369489
I51
I-15409
I288497664
I146624512
I47
I24321200
tp158
a(F1460373449.038162
I50
I-15455
I288497664
I146624512
I68
I24321196
tp159
a(F1460373450.039221
I90
I-15494
I288497664
I146624512
I130
I24321208
tp160
a(F1460373451.040302
I84
I-15574
I288497664
I146624512
I109
I24321208
tp161
a(F1460373452.041471
I87
I-15648
I288497664
I146624512
I78
I24321208
tp162
a(F1460373453.0425639
I94
I-15723
I288497664
I146624512
I137
I24325248
tp163
a(F1460373454.0436859
I82
I-15808
I288497664
I146624512
I121
I24362088
tp164
a(F1460373455.0447941
I95
I-15876
I288497664
I146624512
I84
I24385156
tp165
a(F1460373456.0452311
I85
I-15960
I288497664
I146624512
I75
I24405416
tp166
a(F1460373457.0463719
I85
I-16035
I288497664
I146624512
I76
I24422460
tp167
a(F1460373458.0474801
I93
I-16108
I288497664
I146624512
I82
I24435208
tp168
a(F1460373459.0485461
I90
I-16190
I288497664
I146624512
I81
I24449500
tp169
a(F1460373460.049696
I90
I-16269
I288497664
I146624512
I80
I24454644
tp170
a(F1460373461.0508571
I95
I-16349
I288497664
I146624512
I86
I24482340
tp171
a(F1460373462.051981
I93
I-16433
I288497664
I146624512
I84
I24508852
tp172
a(F1460373463.053149
I52
I-16520
I288497664
I146624512
I47
I24525492
tp173
a(F1460373464.054292
I0
I-16572
I288497664
I146624512
I1
I24525492
tp174
a(F1460373465.0552809
I1
I-16571
I288497664
I146624512
I3
I24525492
tp175
a(F1460373466.056412
I4
I-16572
I288497664
I146624512
I6
I24525492
tp176
a(F1460373467.0575981
I95
I-16566
I288497664
I146624512
I87
I24537532
tp177
a(F1460373468.058707
I63
I-16654
I288497664
I146624512
I57
I24538956
tp178
a(F1460373469.0598159
I94
I-16705
I288497664
I146624512
I84
I24538960
tp179
a(F1460373470.0609801
I87
I-16790
I288497664
I146624512
I79
I24538960
tp180
a(F1460373471.062212
I87
I-16868
I288497664
I146624512
I81
I24538664
tp181
a(F1460373472.0634069
I84
I-16945
I288497664
I146624512
I76
I24540236
tp182
a(F1460373473.064595
I96
I-17018
I288497664
I146624512
I86
I24544752
tp183
a(F1460373474.065748
I93
I-17104
I288497664
I146624512
I86
I24545740
tp184
a(F1460373475.066854
I96
I-17185
I288497664
I146624512
I85
I24546476
tp185
a(F1460373476.0680089
I89
I-17270
I288497664
I146624512
I79
I24548612
tp186
a(F1460373477.0691659
I95
I-17350
I288497664
I146624512
I88
I24549456
tp187
a(F1460373478.070261
I88
I-17433
I288497664
I146624512
I78
I24549996
tp188
a(F1460373479.0711999
I92
I-17509
I288497664
I146624512
I80
I24551252
tp189
a(F1460373480.072376
I0
I-17601
I288497664
I146624512
I2
I24551252
tp190
a(F1460373481.073561
I63
I-17595
I288497664
I146624512
I58
I24552124
tp191
a(F1460373482.0747099
I91
I-17647
I288497664
I146624512
I81
I24552132
tp192
a(F1460373483.0758619
I86
I-17727
I288497664
I146624512
I78
I24552132
tp193
a(F1460373484.0769801
I90
I-17801
I288497664
I146624512
I81
I24553388
tp194
a(F1460373485.078043
I74
I-17883
I288497664
I146624512
I67
I24553488
tp195
a(F1460373486.0792849
I82
I-17948
I288497664
I146624512
I80
I24554336
tp196
a(F1460373487.0804329
I90
I-18019
I288497664
I146624512
I80
I24557712
tp197
a(F1460373488.0815799
I91
I-18099
I288497664
I146624512
I85
I24558600
tp198
a(F1460373489.0827639
I94
I-18178
I288497664
I146624512
I84
I24559724
tp199
a(F1460373490.0839691
I90
I-18261
I288497664
I146624512
I81
I24561288
tp200
a(F1460373491.0851531
I93
I-18341
I288497664
I146624512
I84
I24562076
tp201
a(F1460373492.0863299
I95
I-18420
I288497664
I146624512
I83
I24563740
tp202
a(F1460373493.0874619
I94
I-18505
I288497664
I146624512
I86
I24565196
tp203
a(F1460373494.0885949
I94
I-18588
I288497664
I146624512
I84
I24565548
tp204
a(F1460373495.08971
I89
I-18672
I288497664
I146624512
I82
I24566684
tp205
a(F1460373496.0909231
I96
I-18749
I288497664
I146624512
I89
I24570216
tp206
a(F1460373497.092041
I94
I-18833
I288497664
I144715776
I83
I24571080
tp207
a(F1460373498.0932651
I90
I-18915
I288497664
I130269184
I84
I24571080
tp208
a(F1460373499.0944419
I80
I-18995
I288497664
I130248704
I70
I24573768
tp209
a(F1460373500.0955989
I28
I-19071
I288497664
I130248704
I28
I24573768
tp210
a(F1460373501.0968001
I24
I-19097
I288497664
I130248704
I24
I24573768
tp211
a(F1460373502.0979171
I1
I-19121
I288497664
I130248704
I4
I24573760
tp212
a(F1460373503.0990529
I24
I-19119
I288497664
I130248704
I22
I24576572
tp213
a(F1460373504.1002231
I67
I-19137
I288497664
I130236416
I63
I24578484
tp214
a(F1460373505.1013429
I64
I-19197
I288497664
I130236416
I58
I24580712
tp215
a(F1460373506.1024771
I93
I-19250
I288497664
I130236416
I83
I24585628
tp216
a(F1460373507.1036921
I88
I-19331
I288497664
I130236416
I79
I24585884
tp217
a(F1460373508.104821
I93
I-19407
I288497664
I130236416
I82
I24592728
tp218
a(F1460373509.10604
I85
I-19489
I288497664
I130236416
I76
I24597936
tp219
a(F1460373510.107322
I94
I-19563
I288497664
I130236416
I86
I24597936
tp220
a(F1460373511.1084969
I94
I-19646
I288497664
I130236416
I88
I24597936
tp221
a(F1460373512.1096439
I64
I-19730
I288497664
I130236416
I56
I24599404
tp222
a(F1460373513.11081
I0
I-19794
I288497664
I130236416
I2
I24599396
tp223
a(F1460373514.111285
I88
I-19784
I288497664
I130236416
I81
I24600968
tp224
a(F1460373515.1123581
I95
I-19861
I288497664
I130236416
I84
I24601016
tp225
a(F1460373516.1135099
I90
I-19946
I288497664
I130236416
I82
I24601016
tp226
a(F1460373517.1146469
I87
I-20026
I288497664
I130236416
I80
I24601016
tp227
a(F1460373518.115772
I86
I-20104
I288497664
I130236416
I78
I24601112
tp228
a(F1460373519.116905
I97
I-20178
I288497664
I130236416
I87
I24601104
tp229
a(F1460373520.1180561
I91
I-20264
I288497664
I130236416
I83
I24601096
tp230
a(F1460373521.1182439
I94
I-20344
I288497664
I130236416
I85
I24601224
tp231
a.